; Function Attrs: mustprogress uwtable
define void @_ZN5boost4json6stringC2ERKS1_NS0_11storage_ptrE(ptr noundef nonnull align 8 dereferenceable(24) %0, ptr noundef nonnull readonly align 8 dereferenceable(24) %1, ptr nocapture noundef %2) unnamed_addr #5 align 2 personality ptr @__gxx_personality_v0 {
  %4 = load i64, ptr %2, align 8, !tbaa !11
  store i64 0, ptr %2, align 8, !tbaa !11
  store i64 %4, ptr %0, align 8, !tbaa !17
  %5 = getelementptr inbounds nuw i8, ptr %0, i64 8
  tail call void @_ZN5boost4json6detail11string_implC1Ev(ptr noundef nonnull align 8 dereferenceable(16) %5) #48
  %6 = icmp eq ptr %0, %1
  br i1 %6, label %_ZN5boost4json6string6assignERKS1_.exit, label %7

7:                                                ; preds = %3
  %8 = getelementptr inbounds nuw i8, ptr %1, i64 8
  %9 = load i8, ptr %8, align 8, !tbaa !15
  %10 = icmp eq i8 %9, -123
  %11 = getelementptr inbounds nuw i8, ptr %1, i64 9
  %12 = getelementptr inbounds nuw i8, ptr %1, i64 16
  %13 = load ptr, ptr %12, align 8
  %14 = getelementptr inbounds i8, ptr %13, i64 8
  %.0.i.i.i = select i1 %10, ptr %11, ptr %14
  %15 = icmp eq i8 %9, 5
  br i1 %15, label %16, label %19

16:                                               ; preds = %7
  %17 = load i32, ptr %13, align 4, !tbaa !315
  %18 = zext i32 %17 to i64
  br label %_ZNK5boost4json6string4sizeEv.exit.i

19:                                               ; preds = %7
  %20 = ptrtoint ptr %13 to i64
  %21 = ashr i64 %20, 56
  %22 = sub nsw i64 14, %21
  br label %_ZNK5boost4json6string4sizeEv.exit.i

_ZNK5boost4json6string4sizeEv.exit.i:             ; preds = %19, %16
  %23 = phi i64 [ %18, %16 ], [ %22, %19 ]
  %24 = invoke noundef ptr @_ZN5boost4json6detail11string_impl6assignEmRKNS0_11storage_ptrE(ptr noundef nonnull align 8 dereferenceable(16) %5, i64 noundef %23, ptr noundef nonnull align 8 dereferenceable(24) %0)
          to label %.noexc unwind label %27

.noexc:                                           ; preds = %_ZNK5boost4json6string4sizeEv.exit.i
  %25 = icmp eq i64 %23, 0
  br i1 %25, label %_ZN5boost4json6string6assignERKS1_.exit, label %26

26:                                               ; preds = %.noexc
  tail call void @llvm.memcpy.p0.p0.i64(ptr align 1 %24, ptr nonnull readonly align 1 %.0.i.i.i, i64 %23, i1 false)
  br label %_ZN5boost4json6string6assignERKS1_.exit

_ZN5boost4json6string6assignERKS1_.exit:          ; preds = %26, %.noexc, %3
  ret void

27:                                               ; preds = %_ZNK5boost4json6string4sizeEv.exit.i
  %28 = landingpad { ptr, i32 }
          cleanup
  %29 = load i64, ptr %0, align 8, !tbaa !17
  %30 = and i64 %29, 1
  %.not.i.i = icmp eq i64 %30, 0
  br i1 %.not.i.i, label %_ZN5boost4json11storage_ptrD2Ev.exit, label %31

31:                                               ; preds = %27
  %32 = and i64 %29, -4
  %33 = inttoptr i64 %32 to ptr
  %34 = getelementptr inbounds nuw i8, ptr %33, i64 8
  %35 = atomicrmw sub ptr %34, i64 1 acq_rel, align 8
  %36 = icmp ne i64 %35, 1
  %37 = icmp eq i64 %32, 0
  %or.cond.i.i = or i1 %37, %36
  br i1 %or.cond.i.i, label %_ZN5boost4json11storage_ptrD2Ev.exit, label %38

38:                                               ; preds = %31
  %39 = load ptr, ptr %33, align 8, !tbaa !19
  %40 = getelementptr inbounds i8, ptr %39, i64 8
  %41 = load ptr, ptr %40, align 8
  tail call void %41(ptr noundef nonnull align 8 dereferenceable(16) %33) #48
  br label %_ZN5boost4json11storage_ptrD2Ev.exit

_ZN5boost4json11storage_ptrD2Ev.exit:             ; preds = %27, %31, %38
  resume { ptr, i32 } %28
}